; Function Attrs: mustprogress nounwind uwtable
define dso_local void @_ZN5clang14TypoCorrection17addCorrectionDeclEPNS_9NamedDeclE(ptr noundef nonnull align 8 dereferenceable(88) %0, ptr noundef %1) local_unnamed_addr #0 align 2 {
  %.not = icmp eq ptr %1, null
  br i1 %.not, label %26, label %3

3:                                                ; preds = %2
  %4 = getelementptr inbounds nuw i8, ptr %0, i64 16
  %5 = tail call noundef zeroext i1 @_ZNK4llvm15SmallVectorBaseIjE5emptyEv(ptr noundef nonnull align 8 dereferenceable(16) %4) #24
  br i1 %5, label %_ZNK5clang14TypoCorrection9isKeywordEv.exit.thread, label %_ZNK5clang14TypoCorrection9isKeywordEv.exit

_ZNK5clang14TypoCorrection9isKeywordEv.exit:      ; preds = %3
  %6 = load ptr, ptr %4, align 8
  %7 = load ptr, ptr %6, align 8
  %8 = icmp eq ptr %7, null
  br i1 %8, label %9, label %_ZNK5clang14TypoCorrection9isKeywordEv.exit.thread

9:                                                ; preds = %_ZNK5clang14TypoCorrection9isKeywordEv.exit
  %10 = tail call noundef i64 @_ZNK4llvm15SmallVectorBaseIjE4sizeEv(ptr noundef nonnull align 8 dereferenceable(16) %4) #24
  %11 = getelementptr inbounds nuw i8, ptr %0, i64 24
  store i32 0, ptr %11, align 8
  br label %_ZNK5clang14TypoCorrection9isKeywordEv.exit.thread

_ZNK5clang14TypoCorrection9isKeywordEv.exit.thread: ; preds = %3, %9, %_ZNK5clang14TypoCorrection9isKeywordEv.exit
  %12 = tail call noundef i64 @_ZNK4llvm15SmallVectorBaseIjE4sizeEv(ptr noundef nonnull align 8 dereferenceable(16) %4) #24
  %13 = add i64 %12, 1
  %14 = tail call noundef i64 @_ZNK4llvm15SmallVectorBaseIjE8capacityEv(ptr noundef nonnull align 8 dereferenceable(16) %4) #24
  %.not.i.i.i = icmp ugt i64 %13, %14
  br i1 %.not.i.i.i, label %15, label %_ZN4llvm23SmallVectorTemplateBaseIPN5clang9NamedDeclELb1EE9push_backES3_.exit

15:                                               ; preds = %_ZNK5clang14TypoCorrection9isKeywordEv.exit.thread
  %16 = getelementptr inbounds nuw i8, ptr %0, i64 32
  tail call void @_ZN4llvm15SmallVectorBaseIjE8grow_podEPvmm(ptr noundef nonnull align 8 dereferenceable(16) %4, ptr noundef nonnull %16, i64 noundef %13, i64 noundef 8) #24
  br label %_ZN4llvm23SmallVectorTemplateBaseIPN5clang9NamedDeclELb1EE9push_backES3_.exit

_ZN4llvm23SmallVectorTemplateBaseIPN5clang9NamedDeclELb1EE9push_backES3_.exit: ; preds = %_ZNK5clang14TypoCorrection9isKeywordEv.exit.thread, %15
  %17 = load ptr, ptr %4, align 8
  %18 = tail call noundef i64 @_ZNK4llvm15SmallVectorBaseIjE4sizeEv(ptr noundef nonnull align 8 dereferenceable(16) %4) #24
  %19 = getelementptr inbounds ptr, ptr %17, i64 %18
  %20 = ptrtoint ptr %1 to i64
  store i64 %20, ptr %19, align 1
  %21 = tail call noundef i64 @_ZNK4llvm15SmallVectorBaseIjE4sizeEv(ptr noundef nonnull align 8 dereferenceable(16) %4) #24
  %22 = add i64 %21, 1
  tail call void @_ZN4llvm15SmallVectorBaseIjE8set_sizeEm(ptr noundef nonnull align 8 dereferenceable(16) %4, i64 noundef %22) #24
  %23 = load i64, ptr %0, align 8
  %.not4 = icmp eq i64 %23, 0
  br i1 %.not4, label %24, label %26

24:                                               ; preds = %_ZN4llvm23SmallVectorTemplateBaseIPN5clang9NamedDeclELb1EE9push_backES3_.exit
  %25 = getelementptr inbounds nuw i8, ptr %1, i64 40
  %.sroa.0.0.copyload.i = load i64, ptr %25, align 8
  store i64 %.sroa.0.0.copyload.i, ptr %0, align 8
  br label %26

26:                                               ; preds = %2, %24, %_ZN4llvm23SmallVectorTemplateBaseIPN5clang9NamedDeclELb1EE9push_backES3_.exit
  ret void
}